target datalayout = "e-m:e-p270:32:32-p271:32:32-p272:64:64-i64:64-i128:128-f80:128-n8:16:32:64-S128"
target triple = "x86_64-pc-linux-gnu"

%struct.slurmdb_tres_rec_t = type { i64, i32, i64, i32, ptr, ptr }

; Function Attrs: nounwind uwtable
define dso_local ptr @slurmdb_diff_tres_list(ptr noundef %0, ptr noundef %1) #0 {
  %3 = alloca ptr, align 8
  %4 = alloca ptr, align 8
  %5 = alloca ptr, align 8
  %6 = alloca ptr, align 8
  %7 = alloca ptr, align 8
  %8 = alloca ptr, align 8
  %9 = alloca ptr, align 8
  %10 = alloca i32, align 4
  store ptr %0, ptr %4, align 8
  store ptr %1, ptr %5, align 8
  call void @llvm.lifetime.start.p0(i64 8, ptr %6) #10
  store ptr null, ptr %6, align 8
  call void @llvm.lifetime.start.p0(i64 8, ptr %7) #10
  call void @llvm.lifetime.start.p0(i64 8, ptr %8) #10
  call void @llvm.lifetime.start.p0(i64 8, ptr %9) #10
  %11 = load ptr, ptr %5, align 8
  %12 = icmp ne ptr %11, null
  br i1 %12, label %13, label %17

13:                                               ; preds = %2
  %14 = load ptr, ptr %5, align 8
  %15 = call i32 @list_count(ptr noundef %14)
  %16 = icmp ne i32 %15, 0
  br i1 %16, label %18, label %17

17:                                               ; preds = %13, %2
  store ptr null, ptr %3, align 8
  store i32 1, ptr %10, align 4
  br label %49

18:                                               ; preds = %13
  %19 = load ptr, ptr %5, align 8
  %20 = call ptr @slurmdb_copy_tres_list(ptr noundef %19)
  store ptr %20, ptr %9, align 8
  %21 = load ptr, ptr %9, align 8
  %22 = call ptr @list_iterator_create(ptr noundef %21)
  store ptr %22, ptr %8, align 8
  br label %23

23:                                               ; preds = %45, %33, %18
  %24 = load ptr, ptr %8, align 8
  %25 = call ptr @list_next(ptr noundef %24)
  store ptr %25, ptr %6, align 8
  %26 = icmp ne ptr %25, null
  br i1 %26, label %27, label %46

27:                                               ; preds = %23
  %28 = load ptr, ptr %4, align 8
  %29 = load ptr, ptr %6, align 8
  %30 = getelementptr inbounds nuw %struct.slurmdb_tres_rec_t, ptr %29, i32 0, i32 3
  %31 = call ptr @list_find_first(ptr noundef %28, ptr noundef @slurmdb_find_tres_in_list, ptr noundef %30)
  store ptr %31, ptr %7, align 8
  %32 = icmp ne ptr %31, null
  br i1 %32, label %34, label %33

33:                                               ; preds = %27
  br label %23, !llvm.loop !49

34:                                               ; preds = %27
  %35 = load ptr, ptr %7, align 8
  %36 = getelementptr inbounds nuw %struct.slurmdb_tres_rec_t, ptr %35, i32 0, i32 2
  %37 = load i64, ptr %36, align 8
  %38 = load ptr, ptr %6, align 8
  %39 = getelementptr inbounds nuw %struct.slurmdb_tres_rec_t, ptr %38, i32 0, i32 2
  %40 = load i64, ptr %39, align 8
  %41 = icmp eq i64 %37, %40
  br i1 %41, label %42, label %45

42:                                               ; preds = %34
  %43 = load ptr, ptr %8, align 8
  %44 = call i32 @list_delete_item(ptr noundef %43)
  br label %45

45:                                               ; preds = %42, %34
  br label %23, !llvm.loop !49

46:                                               ; preds = %23
  %47 = load ptr, ptr %8, align 8
  call void @list_iterator_destroy(ptr noundef %47)
  %48 = load ptr, ptr %9, align 8
  store ptr %48, ptr %3, align 8
  store i32 1, ptr %10, align 4
  br label %49

49:                                               ; preds = %46, %17
  call void @llvm.lifetime.end.p0(i64 8, ptr %9) #10
  call void @llvm.lifetime.end.p0(i64 8, ptr %8) #10
  call void @llvm.lifetime.end.p0(i64 8, ptr %7) #10
  call void @llvm.lifetime.end.p0(i64 8, ptr %6) #10
  %50 = load ptr, ptr %3, align 8
  ret ptr %50
}