; Function Attrs: nounwind uwtable
define dso_local noundef ptr @slurmdb_diff_tres_list(ptr noundef %0, ptr noundef %1) local_unnamed_addr #0 {
  %.not = icmp eq ptr %1, null
  br i1 %.not, label %21, label %3

3:                                                ; preds = %2
  %4 = tail call i32 @list_count(ptr noundef nonnull %1) #19
  %.not16 = icmp eq i32 %4, 0
  br i1 %.not16, label %21, label %5

5:                                                ; preds = %3
  %6 = tail call ptr @slurmdb_copy_tres_list(ptr noundef nonnull %1)
  %7 = tail call ptr @list_iterator_create(ptr noundef %6) #19
  %8 = tail call ptr @list_next(ptr noundef %7) #19
  %.not1719 = icmp eq ptr %8, null
  br i1 %.not1719, label %._crit_edge, label %.lr.ph

.lr.ph:                                           ; preds = %5, %.backedge
  %9 = phi ptr [ %20, %.backedge ], [ %8, %5 ]
  %10 = getelementptr inbounds nuw i8, ptr %9, i64 24
  %11 = tail call ptr @list_find_first(ptr noundef %0, ptr noundef nonnull @slurmdb_find_tres_in_list, ptr noundef nonnull %10) #19
  %.not18 = icmp eq ptr %11, null
  br i1 %.not18, label %.backedge, label %12

12:                                               ; preds = %.lr.ph
  %13 = getelementptr inbounds nuw i8, ptr %11, i64 16
  %14 = load i64, ptr %13, align 8
  %15 = getelementptr inbounds nuw i8, ptr %9, i64 16
  %16 = load i64, ptr %15, align 8
  %17 = icmp eq i64 %14, %16
  br i1 %17, label %18, label %.backedge

18:                                               ; preds = %12
  %19 = tail call i32 @list_delete_item(ptr noundef %7) #19
  br label %.backedge

.backedge:                                        ; preds = %12, %18, %.lr.ph
  %20 = tail call ptr @list_next(ptr noundef %7) #19
  %.not17 = icmp eq ptr %20, null
  br i1 %.not17, label %._crit_edge, label %.lr.ph, !llvm.loop !49

._crit_edge:                                      ; preds = %.backedge, %5
  tail call void @list_iterator_destroy(ptr noundef %7) #19
  br label %21

21:                                               ; preds = %2, %3, %._crit_edge
  %.0 = phi ptr [ %6, %._crit_edge ], [ null, %3 ], [ null, %2 ]
  ret ptr %.0
}